; Function Attrs: nounwind uwtable
define range(i32 -1, 1) i32 @H5Sextent_copy(i64 noundef %0, i64 noundef %1) local_unnamed_addr #0 {
  %3 = alloca %struct.H5CX_node_t, align 8
  call void @llvm.lifetime.start.p0(i64 480, ptr nonnull %3) #10
  call void @llvm.memset.p0.i64(ptr noundef nonnull align 8 dereferenceable(480) %3, i8 0, i64 480, i1 false)
  %4 = load i8, ptr @H5_libinit_g, align 1, !tbaa !3, !range !7, !noundef !8
  %5 = trunc nuw i8 %4 to i1
  %6 = load i8, ptr @H5_libterm_g, align 1, !range !7
  %7 = trunc nuw i8 %6 to i1
  %8 = select i1 %5, i1 true, i1 %7
  br i1 %8, label %16, label %9, !prof !9

9:                                                ; preds = %2
  %10 = tail call i32 @H5_init_library() #10
  %11 = icmp slt i32 %10, 0
  br i1 %11, label %12, label %._crit_edge, !prof !31

._crit_edge:                                      ; preds = %9
  %.pre = load i8, ptr @H5_libterm_g, align 1, !range !7
  br label %16

12:                                               ; preds = %9
  %13 = load i64, ptr @H5E_FUNC_g, align 8, !tbaa !10
  %14 = load i64, ptr @H5E_CANTINIT_g, align 8, !tbaa !10
  %15 = tail call i32 (ptr, ptr, i32, i64, i64, ptr, ...) @H5E_printf_stack(ptr noundef nonnull @.str.3, ptr noundef nonnull @__func__.H5Sextent_copy, i32 noundef 548, i64 noundef %13, i64 noundef %14, ptr noundef nonnull @.str.11) #10
  br label %.thread24

16:                                               ; preds = %._crit_edge, %2
  %17 = phi i8 [ %.pre, %._crit_edge ], [ %6, %2 ]
  %18 = load i8, ptr @H5S_init_g, align 1, !tbaa !3, !range !7, !noundef !8
  %19 = trunc nuw i8 %18 to i1
  %20 = trunc nuw i8 %17 to i1
  %21 = select i1 %19, i1 true, i1 %20
  br i1 %21, label %29, label %22, !prof !9

22:                                               ; preds = %16
  store i8 1, ptr @H5S_init_g, align 1, !tbaa !3
  %23 = tail call i32 @H5S__init_package()
  %24 = icmp slt i32 %23, 0
  br i1 %24, label %25, label %29, !prof !33

25:                                               ; preds = %22
  store i8 0, ptr @H5S_init_g, align 1, !tbaa !3
  %26 = load i64, ptr @H5E_FUNC_g, align 8, !tbaa !10
  %27 = load i64, ptr @H5E_CANTINIT_g, align 8, !tbaa !10
  %28 = tail call i32 (ptr, ptr, i32, i64, i64, ptr, ...) @H5E_printf_stack(ptr noundef nonnull @.str.3, ptr noundef nonnull @__func__.H5Sextent_copy, i32 noundef 548, i64 noundef %26, i64 noundef %27, ptr noundef nonnull @.str.4) #10
  br label %.thread24

29:                                               ; preds = %16, %22
  %30 = call i32 @H5CX_push(ptr noundef nonnull %3) #10
  %31 = icmp slt i32 %30, 0
  br i1 %31, label %32, label %36, !prof !31

32:                                               ; preds = %29
  %33 = load i64, ptr @H5E_FUNC_g, align 8, !tbaa !10
  %34 = load i64, ptr @H5E_CANTSET_g, align 8, !tbaa !10
  %35 = call i32 (ptr, ptr, i32, i64, i64, ptr, ...) @H5E_printf_stack(ptr noundef nonnull @.str.3, ptr noundef nonnull @__func__.H5Sextent_copy, i32 noundef 548, i64 noundef %33, i64 noundef %34, ptr noundef nonnull @.str.12) #10
  br label %.thread24

36:                                               ; preds = %29
  %37 = call i32 @H5E_clear_stack() #10
  %38 = call ptr @H5I_object_verify(i64 noundef %1, i32 noundef 4) #10
  %39 = icmp eq ptr %38, null
  br i1 %39, label %40, label %44, !prof !34

40:                                               ; preds = %36
  %41 = load i64, ptr @H5E_ARGS_g, align 8, !tbaa !10
  %42 = load i64, ptr @H5E_BADTYPE_g, align 8, !tbaa !10
  %43 = call i32 (ptr, ptr, i32, i64, i64, ptr, ...) @H5E_printf_stack(ptr noundef nonnull @.str.3, ptr noundef nonnull @__func__.H5Sextent_copy, i32 noundef 552, i64 noundef %41, i64 noundef %42, ptr noundef nonnull @.str.18) #10
  br label %.thread30

44:                                               ; preds = %36
  %45 = call ptr @H5I_object_verify(i64 noundef %0, i32 noundef 4) #10
  %46 = icmp eq ptr %45, null
  br i1 %46, label %47, label %51, !prof !34

47:                                               ; preds = %44
  %48 = load i64, ptr @H5E_ARGS_g, align 8, !tbaa !10
  %49 = load i64, ptr @H5E_BADTYPE_g, align 8, !tbaa !10
  %50 = call i32 (ptr, ptr, i32, i64, i64, ptr, ...) @H5E_printf_stack(ptr noundef nonnull @.str.3, ptr noundef nonnull @__func__.H5Sextent_copy, i32 noundef 554, i64 noundef %48, i64 noundef %49, ptr noundef nonnull @.str.18) #10
  br label %.thread30

51:                                               ; preds = %44
  %52 = call i32 @H5S_extent_copy(ptr noundef nonnull %45, ptr noundef nonnull %38)
  %53 = icmp slt i32 %52, 0
  br i1 %53, label %54, label %59, !prof !34

54:                                               ; preds = %51
  %55 = load i64, ptr @H5E_DATASPACE_g, align 8, !tbaa !10
  %56 = load i64, ptr @H5E_CANTCOPY_g, align 8, !tbaa !10
  %57 = call i32 (ptr, ptr, i32, i64, i64, ptr, ...) @H5E_printf_stack(ptr noundef nonnull @.str.3, ptr noundef nonnull @__func__.H5Sextent_copy, i32 noundef 558, i64 noundef %55, i64 noundef %56, ptr noundef nonnull @.str.21) #10
  br label %.thread30

.thread30:                                        ; preds = %54, %47, %40
  %58 = call i32 @H5CX_pop(i1 noundef zeroext true) #10
  br label %.thread24

59:                                               ; preds = %51
  %60 = call i32 @H5CX_pop(i1 noundef zeroext true) #10
  br label %62

.thread24:                                        ; preds = %32, %25, %12, %.thread30
  %61 = call i32 @H5E_dump_api_stack() #10
  br label %62

62:                                               ; preds = %59, %.thread24
  %.0131927 = phi i32 [ -1, %.thread24 ], [ 0, %59 ]
  call void @llvm.lifetime.end.p0(i64 480, ptr nonnull %3) #10
  ret i32 %.0131927
}